target datalayout = "e-m:e-p270:32:32-p271:32:32-p272:64:64-i64:64-i128:128-f80:128-n8:16:32:64-S128"
target triple = "x86_64-pc-linux-gnu"

%struct.job_record = type { i32, ptr, ptr, ptr, ptr, i16, i32, i32, i32, ptr, i32, ptr, ptr, i16, ptr, double, i64, ptr, ptr, ptr, ptr, ptr, ptr, i32, ptr, i32, i64, i64, i32, i32, ptr, i16, i64, i64, i8, i32, ptr, ptr, ptr, ptr, ptr, ptr, ptr, ptr, i32, ptr, ptr, i32, ptr, i32, ptr, i32, ptr, i32, ptr, ptr, ptr, ptr, ptr, ptr, i32, i16, i64, ptr, ptr, ptr, ptr, %struct.acct_policy_limit_set_t, i16, ptr, ptr, ptr, ptr, ptr, i32, ptr, ptr, ptr, ptr, ptr, i32, i32, ptr, ptr, ptr, i16, ptr, ptr, i8, ptr, ptr, i64, i64, i8, i32, i32, i8, i32, ptr, i32, i64, i32, ptr, ptr, ptr, i8, i16, i64, i32, ptr, ptr, ptr, ptr, ptr, i16, i32, ptr, ptr, ptr, ptr, i32, ptr, i32, i16, i64, ptr, i32, i32, ptr, i64, ptr, ptr, i64, i32, i32, i64, i32, i32, ptr, ptr, ptr, ptr, ptr, ptr, ptr, ptr, ptr, ptr, ptr, ptr, i32, ptr, i16, i16, i16, i16, ptr, i32, i32, i8, i64 }
%struct.acct_policy_limit_set_t = type { i16, i16, ptr }
%struct.job_details_t = type { i32, ptr, i64, ptr, i32, ptr, i64, ptr, i16, i16, ptr, i16, i32, i32, i32, i16, ptr, i16, ptr, ptr, ptr, i16, ptr, ptr, ptr, ptr, i32, ptr, ptr, ptr, ptr, ptr, i32, i32, i32, ptr, ptr, i16, i32, i32, i32, i32, i32, i32, i16, i16, i32, i8, i8, i32, i32, i64, i64, i16, i32, ptr, ptr, i8, ptr, i32, ptr, i64, ptr, ptr, i16, i16, i16, i8, ptr, ptr, ptr, ptr, ptr, ptr, i64, i32, i32, i8, ptr, i16, ptr, ptr, i16 }

@last_job_update = dso_local global i64 0, align 8
@hash_table_size = internal global i32 0, align 4
@job_hash = internal global ptr null, align 8
@.str.167 = private unnamed_addr constant [4 x i8] c"TBD\00", align 1
@power_down_node_bitmap = external global ptr, align 8

; Function Attrs: nounwind uwtable
define dso_local ptr @find_job_record(i32 noundef %0) #0 {
  %2 = alloca ptr, align 8
  %3 = alloca i32, align 4
  %4 = alloca ptr, align 8
  %5 = alloca i32, align 4
  store i32 %0, ptr %3, align 4
  call void @llvm.lifetime.start.p0(i64 8, ptr %4) #13
  %6 = load ptr, ptr @job_hash, align 8
  %7 = load i32, ptr %3, align 4
  %8 = load i32, ptr @hash_table_size, align 4
  %9 = urem i32 %7, %8
  %10 = zext i32 %9 to i64
  %11 = getelementptr inbounds nuw ptr, ptr %6, i64 %10
  %12 = load ptr, ptr %11, align 8
  store ptr %12, ptr %4, align 8
  br label %13

13:                                               ; preds = %24, %1
  %14 = load ptr, ptr %4, align 8
  %15 = icmp ne ptr %14, null
  br i1 %15, label %16, label %28

16:                                               ; preds = %13
  %17 = load ptr, ptr %4, align 8
  %18 = getelementptr inbounds nuw %struct.job_record, ptr %17, i32 0, i32 53
  %19 = load i32, ptr %18, align 8
  %20 = load i32, ptr %3, align 4
  %21 = icmp eq i32 %19, %20
  br i1 %21, label %22, label %24

22:                                               ; preds = %16
  %23 = load ptr, ptr %4, align 8
  store ptr %23, ptr %2, align 8
  store i32 1, ptr %5, align 4
  br label %29

24:                                               ; preds = %16
  %25 = load ptr, ptr %4, align 8
  %26 = getelementptr inbounds nuw %struct.job_record, ptr %25, i32 0, i32 55
  %27 = load ptr, ptr %26, align 8
  store ptr %27, ptr %4, align 8
  br label %13, !llvm.loop !14

28:                                               ; preds = %13
  store ptr null, ptr %2, align 8
  store i32 1, ptr %5, align 4
  br label %29

29:                                               ; preds = %28, %22
  call void @llvm.lifetime.end.p0(i64 8, ptr %4) #13
  %30 = load ptr, ptr %2, align 8
  ret ptr %30
}

; Function Attrs: nounwind uwtable
define dso_local i32 @job_node_ready(i32 noundef %0, ptr noundef %1) #0 {
  %3 = alloca i32, align 4
  %4 = alloca i32, align 4
  %5 = alloca ptr, align 8
  %6 = alloca i32, align 4
  %7 = alloca ptr, align 8
  %8 = alloca i32, align 4
  store i32 %0, ptr %4, align 4
  store ptr %1, ptr %5, align 8
  call void @llvm.lifetime.start.p0(i64 4, ptr %6) #13
  call void @llvm.lifetime.start.p0(i64 8, ptr %7) #13
  %9 = load ptr, ptr %5, align 8
  store i32 0, ptr %9, align 4
  %10 = load i32, ptr %4, align 4
  %11 = call ptr @find_job_record(i32 noundef %10)
  store ptr %11, ptr %7, align 8
  %12 = load ptr, ptr %7, align 8
  %13 = icmp eq ptr %12, null
  br i1 %13, label %14, label %15

14:                                               ; preds = %2
  store i32 2017, ptr %3, align 4
  store i32 1, ptr %8, align 4
  br label %104

15:                                               ; preds = %2
  %16 = load ptr, ptr %7, align 8
  %17 = getelementptr inbounds nuw %struct.job_record, ptr %16, i32 0, i32 60
  %18 = load i32, ptr %17, align 8
  %19 = zext i32 %18 to i64
  %20 = and i64 %19, 16384
  %21 = icmp ne i64 %20, 0
  br i1 %21, label %22, label %23

22:                                               ; preds = %15
  store i32 11, ptr %3, align 4
  store i32 1, ptr %8, align 4
  br label %104

23:                                               ; preds = %15
  %24 = load ptr, ptr %7, align 8
  %25 = call i32 @select_g_job_ready(ptr noundef %24)
  store i32 %25, ptr %6, align 4
  %26 = load i32, ptr %6, align 4
  %27 = icmp eq i32 %26, -2
  br i1 %27, label %28, label %29

28:                                               ; preds = %23
  store i32 2000, ptr %3, align 4
  store i32 1, ptr %8, align 4
  br label %104

29:                                               ; preds = %23
  %30 = load i32, ptr %6, align 4
  %31 = icmp eq i32 %30, -1
  br i1 %31, label %32, label %33

32:                                               ; preds = %29
  store i32 11, ptr %3, align 4
  store i32 1, ptr %8, align 4
  br label %104

33:                                               ; preds = %29
  %34 = load i32, ptr %6, align 4
  %35 = icmp ne i32 %34, 0
  br i1 %35, label %36, label %37

36:                                               ; preds = %33
  store i32 1, ptr %6, align 4
  br label %37

37:                                               ; preds = %36, %33
  %38 = load ptr, ptr %7, align 8
  %39 = getelementptr inbounds nuw %struct.job_record, ptr %38, i32 0, i32 30
  %40 = load ptr, ptr %39, align 8
  %41 = icmp ne ptr %40, null
  br i1 %41, label %42, label %54

42:                                               ; preds = %37
  %43 = load ptr, ptr %7, align 8
  %44 = getelementptr inbounds nuw %struct.job_record, ptr %43, i32 0, i32 30
  %45 = load ptr, ptr %44, align 8
  %46 = getelementptr inbounds nuw %struct.job_details_t, ptr %45, i32 0, i32 57
  %47 = load i8, ptr %46, align 8
  %48 = icmp ne i8 %47, 0
  br i1 %48, label %54, label %49

49:                                               ; preds = %42
  %50 = load i32, ptr %6, align 4
  %51 = sext i32 %50 to i64
  %52 = or i64 %51, 4
  %53 = trunc i64 %52 to i32
  store i32 %53, ptr %6, align 4
  br label %54

54:                                               ; preds = %49, %42, %37
  %55 = load ptr, ptr %7, align 8
  %56 = getelementptr inbounds nuw %struct.job_record, ptr %55, i32 0, i32 60
  %57 = load i32, ptr %56, align 8
  %58 = and i32 %57, 255
  %59 = icmp eq i32 %58, 1
  br i1 %59, label %66, label %60

60:                                               ; preds = %54
  %61 = load ptr, ptr %7, align 8
  %62 = getelementptr inbounds nuw %struct.job_record, ptr %61, i32 0, i32 60
  %63 = load i32, ptr %62, align 8
  %64 = and i32 %63, 255
  %65 = icmp eq i32 %64, 2
  br i1 %65, label %66, label %71

66:                                               ; preds = %60, %54
  %67 = load i32, ptr %6, align 4
  %68 = sext i32 %67 to i64
  %69 = or i64 %68, 2
  %70 = trunc i64 %69 to i32
  store i32 %70, ptr %6, align 4
  br label %71

71:                                               ; preds = %66, %60
  %72 = load i32, ptr %6, align 4
  %73 = sext i32 %72 to i64
  %74 = icmp eq i64 %73, 7
  br i1 %74, label %75, label %101

75:                                               ; preds = %71
  %76 = load ptr, ptr %7, align 8
  %77 = getelementptr inbounds nuw %struct.job_record, ptr %76, i32 0, i32 3
  %78 = load ptr, ptr %77, align 8
  %79 = icmp ne ptr %78, null
  br i1 %79, label %80, label %101

80:                                               ; preds = %75
  %81 = load ptr, ptr %7, align 8
  %82 = getelementptr inbounds nuw %struct.job_record, ptr %81, i32 0, i32 3
  %83 = load ptr, ptr %82, align 8
  %84 = call i32 @xstrcmp(ptr noundef %83, ptr noundef @.str.167)
  %85 = icmp ne i32 %84, 0
  br i1 %85, label %101, label %86

86:                                               ; preds = %80
  %87 = load ptr, ptr %7, align 8
  %88 = getelementptr inbounds nuw %struct.job_record, ptr %87, i32 0, i32 77
  %89 = load ptr, ptr %88, align 8
  %90 = icmp ne ptr %89, null
  br i1 %90, label %91, label %101

91:                                               ; preds = %86
  %92 = load ptr, ptr @power_down_node_bitmap, align 8
  %93 = load ptr, ptr %7, align 8
  %94 = getelementptr inbounds nuw %struct.job_record, ptr %93, i32 0, i32 77
  %95 = load ptr, ptr %94, align 8
  %96 = call i32 @bit_overlap_any(ptr noundef %92, ptr noundef %95)
  %97 = icmp eq i32 %96, 0
  br i1 %97, label %98, label %101

98:                                               ; preds = %91
  %99 = call i64 @time(ptr noundef null) #13
  store i64 %99, ptr @last_job_update, align 8
  %100 = load ptr, ptr %7, align 8
  call void @set_job_alias_list(ptr noundef %100)
  br label %101

101:                                              ; preds = %98, %91, %86, %80, %75, %71
  %102 = load i32, ptr %6, align 4
  %103 = load ptr, ptr %5, align 8
  store i32 %102, ptr %103, align 4
  store i32 0, ptr %3, align 4
  store i32 1, ptr %8, align 4
  br label %104

104:                                              ; preds = %101, %32, %28, %22, %14
  call void @llvm.lifetime.end.p0(i64 8, ptr %7) #13
  call void @llvm.lifetime.end.p0(i64 4, ptr %6) #13
  %105 = load i32, ptr %3, align 4
  ret i32 %105
}