; Function Attrs: nounwind uwtable
define dso_local range(i32 0, 2018) i32 @job_node_ready(i32 noundef %0, ptr noundef writeonly captures(none) initializes((0, 4)) %1) local_unnamed_addr #0 {
  store i32 0, ptr %1, align 4
  %3 = load ptr, ptr @job_hash, align 8
  %4 = load i32, ptr @hash_table_size, align 4
  %5 = urem i32 %0, %4
  %6 = zext i32 %5 to i64
  %7 = getelementptr inbounds nuw ptr, ptr %3, i64 %6
  %.07.i = load ptr, ptr %7, align 8
  %.not8.i = icmp eq ptr %.07.i, null
  br i1 %.not8.i, label %find_job_record.exit.thread, label %.lr.ph.i

.lr.ph.i:                                         ; preds = %2, %11
  %.09.i = phi ptr [ %.0.i, %11 ], [ %.07.i, %2 ]
  %8 = getelementptr inbounds nuw i8, ptr %.09.i, i64 392
  %9 = load i32, ptr %8, align 8
  %10 = icmp eq i32 %9, %0
  br i1 %10, label %find_job_record.exit, label %11

11:                                               ; preds = %.lr.ph.i
  %12 = getelementptr inbounds nuw i8, ptr %.09.i, i64 408
  %.0.i = load ptr, ptr %12, align 8
  %.not.i = icmp eq ptr %.0.i, null
  br i1 %.not.i, label %find_job_record.exit.thread, label %.lr.ph.i, !llvm.loop !14

find_job_record.exit:                             ; preds = %.lr.ph.i
  %13 = getelementptr inbounds nuw i8, ptr %.09.i, i64 448
  %14 = load i32, ptr %13, align 8
  %15 = and i32 %14, 16384
  %.not = icmp eq i32 %15, 0
  br i1 %.not, label %16, label %find_job_record.exit.thread

16:                                               ; preds = %find_job_record.exit
  %17 = tail call i32 @select_g_job_ready(ptr noundef nonnull %.09.i) #27
  switch i32 %17, label %19 [
    i32 -2, label %find_job_record.exit.thread
    i32 -1, label %18
  ]

18:                                               ; preds = %16
  br label %find_job_record.exit.thread

19:                                               ; preds = %16
  %.not29 = icmp ne i32 %17, 0
  %spec.store.select = zext i1 %.not29 to i32
  %20 = getelementptr inbounds nuw i8, ptr %.09.i, i64 216
  %21 = load ptr, ptr %20, align 8
  %.not30 = icmp eq ptr %21, null
  br i1 %.not30, label %26, label %22

22:                                               ; preds = %19
  %23 = getelementptr inbounds nuw i8, ptr %21, i64 352
  %24 = load i8, ptr %23, align 8
  %.not31 = icmp eq i8 %24, 0
  %25 = or disjoint i32 %spec.store.select, 4
  %spec.select36 = select i1 %.not31, i32 %25, i32 %spec.store.select
  br label %26

26:                                               ; preds = %22, %19
  %.022 = phi i32 [ %spec.store.select, %19 ], [ %spec.select36, %22 ]
  %27 = load i32, ptr %13, align 8
  %28 = and i32 %27, 255
  %.off = add nsw i32 %28, -1
  %switch = icmp ult i32 %.off, 2
  %29 = or i32 %.022, 2
  %spec.select = select i1 %switch, i32 %29, i32 %.022
  %30 = icmp eq i32 %spec.select, 7
  br i1 %30, label %31, label %45

31:                                               ; preds = %26
  %32 = getelementptr inbounds nuw i8, ptr %.09.i, i64 24
  %33 = load ptr, ptr %32, align 8
  %.not32 = icmp eq ptr %33, null
  br i1 %.not32, label %45, label %34

34:                                               ; preds = %31
  %35 = tail call i32 @xstrcmp(ptr noundef nonnull %33, ptr noundef nonnull @.str.167) #27
  %.not33 = icmp eq i32 %35, 0
  br i1 %.not33, label %36, label %45

36:                                               ; preds = %34
  %37 = getelementptr inbounds nuw i8, ptr %.09.i, i64 584
  %38 = load ptr, ptr %37, align 8
  %.not34 = icmp eq ptr %38, null
  br i1 %.not34, label %45, label %39

39:                                               ; preds = %36
  %40 = load ptr, ptr @power_down_node_bitmap, align 8
  %41 = tail call i32 @bit_overlap_any(ptr noundef %40, ptr noundef nonnull %38) #27
  %42 = icmp eq i32 %41, 0
  br i1 %42, label %43, label %45

43:                                               ; preds = %39
  %44 = tail call i64 @time(ptr noundef null) #27
  store i64 %44, ptr @last_job_update, align 8
  tail call void @set_job_alias_list(ptr noundef nonnull %.09.i) #27
  br label %45

45:                                               ; preds = %43, %39, %36, %34, %31, %26
  store i32 %spec.select, ptr %1, align 4
  br label %find_job_record.exit.thread

find_job_record.exit.thread:                      ; preds = %11, %2, %16, %find_job_record.exit, %45, %18
  %.0 = phi i32 [ 11, %18 ], [ 0, %45 ], [ 11, %find_job_record.exit ], [ 2000, %16 ], [ 2017, %2 ], [ 2017, %11 ]
  ret i32 %.0
}